target datalayout = "e-m:e-p270:32:32-p271:32:32-p272:64:64-i64:64-i128:128-f80:128-n8:16:32:64-S128"
target triple = "x86_64-pc-linux-gnu"

%struct.nstime_t = type { i64, i32 }
%struct._srt_data_t = type { ptr, ptr }
%struct._GArray = type { ptr, i32 }
%struct.snmp_request_response = type { i32, i32, %struct.nstime_t, i32, i32 }

; Function Attrs: nounwind uwtable
define internal i32 @snmpstat_packet(ptr noundef %0, ptr noundef %1, ptr noundef %2, ptr noundef %3, i32 noundef %4) #0 {
  %6 = alloca ptr, align 8
  %7 = alloca ptr, align 8
  %8 = alloca ptr, align 8
  %9 = alloca ptr, align 8
  %10 = alloca i32, align 4
  %11 = alloca i32, align 4
  %12 = alloca ptr, align 8
  %13 = alloca ptr, align 8
  %14 = alloca ptr, align 8
  store ptr %0, ptr %6, align 8
  store ptr %1, ptr %7, align 8
  store ptr %2, ptr %8, align 8
  store ptr %3, ptr %9, align 8
  store i32 %4, ptr %10, align 4
  store i32 0, ptr %11, align 4
  %15 = load ptr, ptr %9, align 8
  store ptr %15, ptr %13, align 8
  %16 = load ptr, ptr %6, align 8
  store ptr %16, ptr %14, align 8
  %17 = load ptr, ptr %14, align 8
  %18 = getelementptr inbounds %struct._srt_data_t, ptr %17, i32 0, i32 0
  %19 = load ptr, ptr %18, align 8
  %20 = getelementptr inbounds %struct._GArray, ptr %19, i32 0, i32 0
  %21 = load ptr, ptr %20, align 8
  %22 = load i32, ptr %11, align 4
  %23 = zext i32 %22 to i64
  %24 = getelementptr ptr, ptr %21, i64 %23
  %25 = load ptr, ptr %24, align 8
  store ptr %25, ptr %12, align 8
  %26 = load ptr, ptr %12, align 8
  %27 = load ptr, ptr %13, align 8
  %28 = getelementptr inbounds %struct.snmp_request_response, ptr %27, i32 0, i32 4
  %29 = load i32, ptr %28, align 4
  %30 = load ptr, ptr %13, align 8
  %31 = getelementptr inbounds %struct.snmp_request_response, ptr %30, i32 0, i32 2
  %32 = load ptr, ptr %7, align 8
  call void @add_srt_table_data(ptr noundef %26, i32 noundef %29, ptr noundef %31, ptr noundef %32)
  ret i32 1
}