; Function Attrs: nounwind uwtable
define internal noundef i32 @snmpstat_packet(ptr noundef readonly captures(none) %0, ptr noundef %1, ptr readnone captures(none) %2, ptr noundef %3, i32 %4) #0 {
  %6 = load ptr, ptr %0, align 8
  %7 = load ptr, ptr %6, align 8
  %8 = load ptr, ptr %7, align 8
  %9 = getelementptr inbounds nuw i8, ptr %3, i64 28
  %10 = load i32, ptr %9, align 4
  %11 = getelementptr inbounds nuw i8, ptr %3, i64 8
  tail call void @add_srt_table_data(ptr noundef %8, i32 noundef %10, ptr noundef nonnull %11, ptr noundef %1) #11
  ret i32 1
}